; Function Attrs: mustprogress uwtable
define dso_local void @_ZNK9struct_pb8compiler20StringFieldGenerator13cpp_type_nameB5cxx11Ev(ptr noalias sret(%"class.std::__cxx11::basic_string") align 8 %agg.result, ptr nocapture noundef nonnull readonly align 8 dereferenceable(64) %this) unnamed_addr #3 align 2 personality ptr @__gxx_personality_v0 {
entry:
  %__callable.i.i.i.i.i = alloca %class.anon, align 8
  %ref.tmp.i.i.i = alloca ptr, align 8
  %ref.tmp3.i.i.i = alloca ptr, align 8
  %ref.tmp = alloca %"class.std::allocator", align 1
  %ref.tmp2 = alloca %"class.std::allocator", align 1
  %d_ = getelementptr inbounds i8, ptr %this, i64 56
  %0 = load ptr, ptr %d_, align 8
  %label_.i.i.i = getelementptr inbounds i8, ptr %0, i64 60
  %1 = load i32, ptr %label_.i.i.i, align 4
  %cmp.i.i = icmp eq i32 %1, 3
  br i1 %cmp.i.i, label %if.end, label %if.end.i

if.end.i:                                         ; preds = %entry
  call void @llvm.lifetime.start.p0(i64 8, ptr nonnull %ref.tmp.i.i.i)
  call void @llvm.lifetime.start.p0(i64 8, ptr nonnull %ref.tmp3.i.i.i)
  %type_once_.i.i.i = getelementptr inbounds i8, ptr %0, i64 48
  %2 = load ptr, ptr %type_once_.i.i.i, align 8
  %tobool.not.i.i.i = icmp eq ptr %2, null
  br i1 %tobool.not.i.i.i, label %_ZNK6google8protobuf15FieldDescriptor8cpp_typeEv.exit.i, label %if.then.i.i.i

if.then.i.i.i:                                    ; preds = %if.end.i
  store ptr @_ZN6google8protobuf15FieldDescriptor12TypeOnceInitEPKS1_, ptr %ref.tmp.i.i.i, align 8
  store ptr %0, ptr %ref.tmp3.i.i.i, align 8
  call void @llvm.lifetime.start.p0(i64 16, ptr nonnull %__callable.i.i.i.i.i)
  store ptr %ref.tmp.i.i.i, ptr %__callable.i.i.i.i.i, align 8
  %3 = getelementptr inbounds i8, ptr %__callable.i.i.i.i.i, i64 8
  store ptr %ref.tmp3.i.i.i, ptr %3, align 8
  %4 = call align 8 ptr @llvm.threadlocal.address.p0(ptr align 8 @_ZSt15__once_callable)
  store ptr %__callable.i.i.i.i.i, ptr %4, align 8
  %5 = call align 8 ptr @llvm.threadlocal.address.p0(ptr align 8 @_ZSt11__once_call)
  store ptr @_ZZNSt9once_flag18_Prepare_executionC1IZSt9call_onceIPFvPKN6google8protobuf15FieldDescriptorEEJS7_EEvRS_OT_DpOT0_EUlvE_EERSB_ENUlvE_8__invokeEv, ptr %5, align 8
  %call1.i2.i.i.i.i.i = invoke noundef i32 @pthread_once(ptr noundef nonnull %2, ptr noundef nonnull @__once_proxy)
          to label %invoke.cont.i.i.i.i.i unwind label %lpad.i.i.i.i.i

invoke.cont.i.i.i.i.i:                            ; preds = %if.then.i.i.i
  %tobool.not.i.i.i.i.i = icmp eq i32 %call1.i2.i.i.i.i.i, 0
  br i1 %tobool.not.i.i.i.i.i, label %_ZN6google8protobuf8internal9call_onceIJRSt9once_flagPFvPKNS0_15FieldDescriptorEES7_EEEvDpOT_.exit.i.i.i, label %if.then.i.i.i.i.i

if.then.i.i.i.i.i:                                ; preds = %invoke.cont.i.i.i.i.i
  invoke void @_ZSt20__throw_system_errori(i32 noundef %call1.i2.i.i.i.i.i) #22
          to label %invoke.cont1.i.i.i.i.i unwind label %lpad.i.i.i.i.i

invoke.cont1.i.i.i.i.i:                           ; preds = %if.then.i.i.i.i.i
  unreachable

common.resume:                                    ; preds = %lpad, %lpad3, %lpad.i.i.i.i.i
  %common.resume.op = phi { ptr, i32 } [ %6, %lpad.i.i.i.i.i ], [ %12, %lpad ], [ %13, %lpad3 ]
  resume { ptr, i32 } %common.resume.op

lpad.i.i.i.i.i:                                   ; preds = %if.then.i.i.i.i.i, %if.then.i.i.i
  %6 = landingpad { ptr, i32 }
          cleanup
  store ptr null, ptr %4, align 8
  store ptr null, ptr %5, align 8
  br label %common.resume

_ZN6google8protobuf8internal9call_onceIJRSt9once_flagPFvPKNS0_15FieldDescriptorEES7_EEEvDpOT_.exit.i.i.i: ; preds = %invoke.cont.i.i.i.i.i
  store ptr null, ptr %4, align 8
  store ptr null, ptr %5, align 8
  call void @llvm.lifetime.end.p0(i64 16, ptr nonnull %__callable.i.i.i.i.i)
  br label %_ZNK6google8protobuf15FieldDescriptor8cpp_typeEv.exit.i

_ZNK6google8protobuf15FieldDescriptor8cpp_typeEv.exit.i: ; preds = %_ZN6google8protobuf8internal9call_onceIJRSt9once_flagPFvPKNS0_15FieldDescriptorEES7_EEEvDpOT_.exit.i.i.i, %if.end.i
  %type_.i.i.i = getelementptr inbounds i8, ptr %0, i64 56
  %7 = load i32, ptr %type_.i.i.i, align 8
  call void @llvm.lifetime.end.p0(i64 8, ptr nonnull %ref.tmp.i.i.i)
  call void @llvm.lifetime.end.p0(i64 8, ptr nonnull %ref.tmp3.i.i.i)
  %idxprom.i.i = zext i32 %7 to i64
  %arrayidx.i.i = getelementptr inbounds [19 x i32], ptr @_ZN6google8protobuf15FieldDescriptor17kTypeToCppTypeMapE, i64 0, i64 %idxprom.i.i
  %8 = load i32, ptr %arrayidx.i.i, align 4
  %cmp.i = icmp ne i32 %8, 10
  %containing_oneof_.i.i = getelementptr inbounds i8, ptr %0, i64 88
  %9 = load ptr, ptr %containing_oneof_.i.i, align 8
  %tobool.not.i = icmp eq ptr %9, null
  %or.cond.i = select i1 %cmp.i, i1 %tobool.not.i, i1 false
  br i1 %or.cond.i, label %_ZNK6google8protobuf15FieldDescriptor12has_presenceEv.exit, label %if.then

_ZNK6google8protobuf15FieldDescriptor12has_presenceEv.exit: ; preds = %_ZNK6google8protobuf15FieldDescriptor8cpp_typeEv.exit.i
  %file_.i.i = getelementptr inbounds i8, ptr %0, i64 40
  %10 = load ptr, ptr %file_.i.i, align 8
  %syntax_.i.i = getelementptr inbounds i8, ptr %10, i64 60
  %11 = load i32, ptr %syntax_.i.i, align 4
  %cmp6.i = icmp eq i32 %11, 2
  br i1 %cmp6.i, label %if.then, label %if.end

if.then:                                          ; preds = %_ZNK6google8protobuf15FieldDescriptor8cpp_typeEv.exit.i, %_ZNK6google8protobuf15FieldDescriptor12has_presenceEv.exit
  call void @_ZNSaIcEC1Ev(ptr noundef nonnull align 1 dereferenceable(1) %ref.tmp) #19
  invoke void @_ZNSt7__cxx1112basic_stringIcSt11char_traitsIcESaIcEEC2IS3_EEPKcRKS3_(ptr noundef nonnull align 8 dereferenceable(32) %agg.result, ptr noundef nonnull @.str.11, ptr noundef nonnull align 1 dereferenceable(1) %ref.tmp)
          to label %return unwind label %lpad

lpad:                                             ; preds = %if.then
  %12 = landingpad { ptr, i32 }
          cleanup
  call void @_ZNSaIcED1Ev(ptr noundef nonnull align 1 dereferenceable(1) %ref.tmp) #19
  br label %common.resume

if.end:                                           ; preds = %entry, %_ZNK6google8protobuf15FieldDescriptor12has_presenceEv.exit
  call void @_ZNSaIcEC1Ev(ptr noundef nonnull align 1 dereferenceable(1) %ref.tmp2) #19
  invoke void @_ZNSt7__cxx1112basic_stringIcSt11char_traitsIcESaIcEEC2IS3_EEPKcRKS3_(ptr noundef nonnull align 8 dereferenceable(32) %agg.result, ptr noundef nonnull @.str.12, ptr noundef nonnull align 1 dereferenceable(1) %ref.tmp2)
          to label %return unwind label %lpad3

lpad3:                                            ; preds = %if.end
  %13 = landingpad { ptr, i32 }
          cleanup
  call void @_ZNSaIcED1Ev(ptr noundef nonnull align 1 dereferenceable(1) %ref.tmp2) #19
  br label %common.resume

return:                                           ; preds = %if.end, %if.then
  %ref.tmp2.sink = phi ptr [ %ref.tmp, %if.then ], [ %ref.tmp2, %if.end ]
  call void @_ZNSaIcED1Ev(ptr noundef nonnull align 1 dereferenceable(1) %ref.tmp2.sink) #19
  ret void
}